target datalayout = "e-m:e-p270:32:32-p271:32:32-p272:64:64-i64:64-i128:128-f80:128-n8:16:32:64-S128"
target triple = "x86_64-pc-linux-gnu"

%struct.Abc_Obj_t_ = type { ptr, ptr, i32, i32, %struct.Vec_Int_t_, %struct.Vec_Int_t_, %union.anon.1, %union.anon.2 }
%struct.Vec_Int_t_ = type { i32, i32, ptr }
%union.anon.1 = type { ptr }
%union.anon.2 = type { ptr }
%struct.Abc_Ntk_t_ = type { i32, i32, ptr, ptr, ptr, ptr, ptr, ptr, ptr, ptr, ptr, ptr, ptr, [11 x i32], i32, i32, i32, i32, ptr, i32, ptr, ptr, i32, i32, i32, double, i32, %struct.Vec_Int_t_, ptr, ptr, ptr, ptr, ptr, float, i32, ptr, ptr, ptr, ptr, ptr, ptr, ptr, ptr, ptr, ptr, ptr, ptr, ptr, ptr, ptr, ptr, ptr, ptr, ptr, ptr, ptr }
%struct.Vec_Ptr_t_ = type { i32, i32, ptr }

; Function Attrs: nounwind uwtable
define internal ptr @Vec_PtrEntry(ptr noundef %0, i32 noundef %1) #0 {
  %3 = alloca ptr, align 8
  %4 = alloca i32, align 4
  store ptr %0, ptr %3, align 8
  store i32 %1, ptr %4, align 4
  %5 = load ptr, ptr %3, align 8
  %6 = getelementptr inbounds %struct.Vec_Ptr_t_, ptr %5, i32 0, i32 2
  %7 = load ptr, ptr %6, align 8
  %8 = load i32, ptr %4, align 4
  %9 = sext i32 %8 to i64
  %10 = getelementptr inbounds ptr, ptr %7, i64 %9
  %11 = load ptr, ptr %10, align 8
  ret ptr %11
}

; Function Attrs: nounwind uwtable
define internal i32 @Abc_ObjFaninNum(ptr noundef %0) #0 {
  %2 = alloca ptr, align 8
  store ptr %0, ptr %2, align 8
  %3 = load ptr, ptr %2, align 8
  %4 = getelementptr inbounds %struct.Abc_Obj_t_, ptr %3, i32 0, i32 4
  %5 = getelementptr inbounds %struct.Vec_Int_t_, ptr %4, i32 0, i32 1
  %6 = load i32, ptr %5, align 4
  ret i32 %6
}

; Function Attrs: nounwind uwtable
define internal ptr @Abc_NtkPo(ptr noundef %0, i32 noundef %1) #0 {
  %3 = alloca ptr, align 8
  %4 = alloca i32, align 4
  store ptr %0, ptr %3, align 8
  store i32 %1, ptr %4, align 4
  %5 = load ptr, ptr %3, align 8
  %6 = getelementptr inbounds %struct.Abc_Ntk_t_, ptr %5, i32 0, i32 7
  %7 = load ptr, ptr %6, align 8
  %8 = load i32, ptr %4, align 4
  %9 = call ptr @Vec_PtrEntry(ptr noundef %7, i32 noundef %8)
  ret ptr %9
}

; Function Attrs: nounwind uwtable
define internal i32 @Abc_ObjIsBo(ptr noundef %0) #0 {
  %2 = alloca ptr, align 8
  store ptr %0, ptr %2, align 8
  %3 = load ptr, ptr %2, align 8
  %4 = getelementptr inbounds %struct.Abc_Obj_t_, ptr %3, i32 0, i32 3
  %5 = load i32, ptr %4, align 4
  %6 = and i32 %5, 15
  %7 = icmp eq i32 %6, 5
  %8 = zext i1 %7 to i32
  ret i32 %8
}

; Function Attrs: nounwind uwtable
define internal ptr @Abc_ObjFanin(ptr noundef %0, i32 noundef %1) #0 {
  %3 = alloca ptr, align 8
  %4 = alloca i32, align 4
  store ptr %0, ptr %3, align 8
  store i32 %1, ptr %4, align 4
  %5 = load ptr, ptr %3, align 8
  %6 = getelementptr inbounds %struct.Abc_Obj_t_, ptr %5, i32 0, i32 0
  %7 = load ptr, ptr %6, align 8
  %8 = getelementptr inbounds %struct.Abc_Ntk_t_, ptr %7, i32 0, i32 5
  %9 = load ptr, ptr %8, align 8
  %10 = getelementptr inbounds %struct.Vec_Ptr_t_, ptr %9, i32 0, i32 2
  %11 = load ptr, ptr %10, align 8
  %12 = load ptr, ptr %3, align 8
  %13 = getelementptr inbounds %struct.Abc_Obj_t_, ptr %12, i32 0, i32 4
  %14 = getelementptr inbounds %struct.Vec_Int_t_, ptr %13, i32 0, i32 2
  %15 = load ptr, ptr %14, align 8
  %16 = load i32, ptr %4, align 4
  %17 = sext i32 %16 to i64
  %18 = getelementptr inbounds i32, ptr %15, i64 %17
  %19 = load i32, ptr %18, align 4
  %20 = sext i32 %19 to i64
  %21 = getelementptr inbounds ptr, ptr %11, i64 %20
  %22 = load ptr, ptr %21, align 8
  ret ptr %22
}

; Function Attrs: nounwind uwtable
define internal ptr @Abc_ObjModel(ptr noundef %0) #0 {
  %2 = alloca ptr, align 8
  store ptr %0, ptr %2, align 8
  %3 = load ptr, ptr %2, align 8
  %4 = getelementptr inbounds %struct.Abc_Obj_t_, ptr %3, i32 0, i32 6
  %5 = load ptr, ptr %4, align 8
  ret ptr %5
}

; Function Attrs: nounwind uwtable
define internal ptr @Vec_PtrPop(ptr noundef %0) #0 {
  %2 = alloca ptr, align 8
  store ptr %0, ptr %2, align 8
  %3 = load ptr, ptr %2, align 8
  %4 = getelementptr inbounds %struct.Vec_Ptr_t_, ptr %3, i32 0, i32 2
  %5 = load ptr, ptr %4, align 8
  %6 = load ptr, ptr %2, align 8
  %7 = getelementptr inbounds %struct.Vec_Ptr_t_, ptr %6, i32 0, i32 1
  %8 = load i32, ptr %7, align 4
  %9 = add nsw i32 %8, -1
  store i32 %9, ptr %7, align 4
  %10 = sext i32 %9 to i64
  %11 = getelementptr inbounds ptr, ptr %5, i64 %10
  %12 = load ptr, ptr %11, align 8
  ret ptr %12
}

; Function Attrs: nounwind uwtable
define internal i32 @Abc_ObjIsPi(ptr noundef %0) #0 {
  %2 = alloca ptr, align 8
  store ptr %0, ptr %2, align 8
  %3 = load ptr, ptr %2, align 8
  %4 = getelementptr inbounds %struct.Abc_Obj_t_, ptr %3, i32 0, i32 3
  %5 = load i32, ptr %4, align 4
  %6 = and i32 %5, 15
  %7 = icmp eq i32 %6, 2
  %8 = zext i1 %7 to i32
  ret i32 %8
}

; Function Attrs: nounwind uwtable
define internal ptr @Abc_ObjFanin0(ptr noundef %0) #0 {
  %2 = alloca ptr, align 8
  store ptr %0, ptr %2, align 8
  %3 = load ptr, ptr %2, align 8
  %4 = getelementptr inbounds %struct.Abc_Obj_t_, ptr %3, i32 0, i32 0
  %5 = load ptr, ptr %4, align 8
  %6 = getelementptr inbounds %struct.Abc_Ntk_t_, ptr %5, i32 0, i32 5
  %7 = load ptr, ptr %6, align 8
  %8 = getelementptr inbounds %struct.Vec_Ptr_t_, ptr %7, i32 0, i32 2
  %9 = load ptr, ptr %8, align 8
  %10 = load ptr, ptr %2, align 8
  %11 = getelementptr inbounds %struct.Abc_Obj_t_, ptr %10, i32 0, i32 4
  %12 = getelementptr inbounds %struct.Vec_Int_t_, ptr %11, i32 0, i32 2
  %13 = load ptr, ptr %12, align 8
  %14 = getelementptr inbounds i32, ptr %13, i64 0
  %15 = load i32, ptr %14, align 4
  %16 = sext i32 %15 to i64
  %17 = getelementptr inbounds ptr, ptr %9, i64 %16
  %18 = load ptr, ptr %17, align 8
  ret ptr %18
}

; Function Attrs: nounwind uwtable
define internal i32 @Abc_ObjIsBi(ptr noundef %0) #0 {
  %2 = alloca ptr, align 8
  store ptr %0, ptr %2, align 8
  %3 = load ptr, ptr %2, align 8
  %4 = getelementptr inbounds %struct.Abc_Obj_t_, ptr %3, i32 0, i32 3
  %5 = load i32, ptr %4, align 4
  %6 = and i32 %5, 15
  %7 = icmp eq i32 %6, 4
  %8 = zext i1 %7 to i32
  ret i32 %8
}

; Function Attrs: nounwind uwtable
define internal i32 @Abc_ObjIsPo(ptr noundef %0) #0 {
  %2 = alloca ptr, align 8
  store ptr %0, ptr %2, align 8
  %3 = load ptr, ptr %2, align 8
  %4 = getelementptr inbounds %struct.Abc_Obj_t_, ptr %3, i32 0, i32 3
  %5 = load i32, ptr %4, align 4
  %6 = and i32 %5, 15
  %7 = icmp eq i32 %6, 3
  %8 = zext i1 %7 to i32
  ret i32 %8
}

; Function Attrs: nounwind uwtable
define internal i32 @Abc_ObjIsNet(ptr noundef %0) #0 {
  %2 = alloca ptr, align 8
  store ptr %0, ptr %2, align 8
  %3 = load ptr, ptr %2, align 8
  %4 = getelementptr inbounds %struct.Abc_Obj_t_, ptr %3, i32 0, i32 3
  %5 = load i32, ptr %4, align 4
  %6 = and i32 %5, 15
  %7 = icmp eq i32 %6, 6
  %8 = zext i1 %7 to i32
  ret i32 %8
}

; Function Attrs: nounwind uwtable
define i32 @Abc_NtkFlattenHierarchyGia_rec(ptr noundef %0, ptr noundef %1, ptr noundef %2, ptr noundef %3) #0 {
  %5 = alloca i32, align 4
  %6 = alloca ptr, align 8
  %7 = alloca ptr, align 8
  %8 = alloca ptr, align 8
  %9 = alloca ptr, align 8
  %10 = alloca ptr, align 8
  %11 = alloca ptr, align 8
  %12 = alloca ptr, align 8
  %13 = alloca i32, align 4
  %14 = alloca i32, align 4
  store ptr %0, ptr %6, align 8
  store ptr %1, ptr %7, align 8
  store ptr %2, ptr %8, align 8
  store ptr %3, ptr %9, align 8
  %15 = load ptr, ptr %8, align 8
  %16 = getelementptr inbounds %struct.Abc_Obj_t_, ptr %15, i32 0, i32 7
  %17 = load i32, ptr %16, align 8
  %18 = icmp ne i32 %17, -1
  br i1 %18, label %19, label %23

19:                                               ; preds = %4
  %20 = load ptr, ptr %8, align 8
  %21 = getelementptr inbounds %struct.Abc_Obj_t_, ptr %20, i32 0, i32 7
  %22 = load i32, ptr %21, align 8
  store i32 %22, ptr %5, align 4
  br label %151

23:                                               ; preds = %4
  %24 = load ptr, ptr %8, align 8
  %25 = call i32 @Abc_ObjIsNet(ptr noundef %24)
  %26 = icmp ne i32 %25, 0
  br i1 %26, label %35, label %27

27:                                               ; preds = %23
  %28 = load ptr, ptr %8, align 8
  %29 = call i32 @Abc_ObjIsPo(ptr noundef %28)
  %30 = icmp ne i32 %29, 0
  br i1 %30, label %35, label %31

31:                                               ; preds = %27
  %32 = load ptr, ptr %8, align 8
  %33 = call i32 @Abc_ObjIsBi(ptr noundef %32)
  %34 = icmp ne i32 %33, 0
  br i1 %34, label %35, label %44

35:                                               ; preds = %31, %27, %23
  %36 = load ptr, ptr %6, align 8
  %37 = load ptr, ptr %7, align 8
  %38 = load ptr, ptr %8, align 8
  %39 = call ptr @Abc_ObjFanin0(ptr noundef %38)
  %40 = load ptr, ptr %9, align 8
  %41 = call i32 @Abc_NtkFlattenHierarchyGia_rec(ptr noundef %36, ptr noundef %37, ptr noundef %39, ptr noundef %40)
  %42 = load ptr, ptr %8, align 8
  %43 = getelementptr inbounds %struct.Abc_Obj_t_, ptr %42, i32 0, i32 7
  store i32 %41, ptr %43, align 8
  store i32 %41, ptr %5, align 4
  br label %151

44:                                               ; preds = %31
  %45 = load ptr, ptr %8, align 8
  %46 = call i32 @Abc_ObjIsPi(ptr noundef %45)
  %47 = icmp ne i32 %46, 0
  br i1 %47, label %48, label %83

48:                                               ; preds = %44
  %49 = load ptr, ptr %7, align 8
  %50 = call ptr @Vec_PtrPop(ptr noundef %49)
  store ptr %50, ptr %11, align 8
  %51 = load ptr, ptr %11, align 8
  %52 = call ptr @Abc_ObjModel(ptr noundef %51)
  store ptr %52, ptr %10, align 8
  %53 = load ptr, ptr %11, align 8
  %54 = load ptr, ptr %8, align 8
  %55 = getelementptr inbounds %struct.Abc_Obj_t_, ptr %54, i32 0, i32 6
  %56 = load i32, ptr %55, align 8
  %57 = call ptr @Abc_ObjFanin(ptr noundef %53, i32 noundef %56)
  store ptr %57, ptr %12, align 8
  %58 = load ptr, ptr %6, align 8
  %59 = load ptr, ptr %7, align 8
  %60 = load ptr, ptr %12, align 8
  %61 = load ptr, ptr %9, align 8
  %62 = call i32 @Abc_NtkFlattenHierarchyGia_rec(ptr noundef %58, ptr noundef %59, ptr noundef %60, ptr noundef %61)
  store i32 %62, ptr %13, align 4
  %63 = load ptr, ptr %7, align 8
  %64 = load ptr, ptr %11, align 8
  call void @Vec_PtrPush(ptr noundef %63, ptr noundef %64)
  %65 = load ptr, ptr %9, align 8
  %66 = icmp ne ptr %65, null
  br i1 %66, label %67, label %70

67:                                               ; preds = %48
  %68 = load ptr, ptr %9, align 8
  %69 = load ptr, ptr %8, align 8
  call void @Vec_PtrPush(ptr noundef %68, ptr noundef %69)
  br label %70

70:                                               ; preds = %67, %48
  %71 = load ptr, ptr %9, align 8
  %72 = icmp ne ptr %71, null
  br i1 %72, label %73, label %77

73:                                               ; preds = %70
  %74 = load ptr, ptr %6, align 8
  %75 = load i32, ptr %13, align 4
  %76 = call i32 @Gia_ManAppendBuf(ptr noundef %74, i32 noundef %75)
  br label %79

77:                                               ; preds = %70
  %78 = load i32, ptr %13, align 4
  br label %79

79:                                               ; preds = %77, %73
  %80 = phi i32 [ %76, %73 ], [ %78, %77 ]
  %81 = load ptr, ptr %8, align 8
  %82 = getelementptr inbounds %struct.Abc_Obj_t_, ptr %81, i32 0, i32 7
  store i32 %80, ptr %82, align 8
  store i32 %80, ptr %5, align 4
  br label %151

83:                                               ; preds = %44
  %84 = load ptr, ptr %8, align 8
  %85 = call i32 @Abc_ObjIsBo(ptr noundef %84)
  %86 = icmp ne i32 %85, 0
  br i1 %86, label %87, label %124

87:                                               ; preds = %83
  %88 = load ptr, ptr %8, align 8
  %89 = call ptr @Abc_ObjFanin0(ptr noundef %88)
  store ptr %89, ptr %11, align 8
  %90 = load ptr, ptr %7, align 8
  %91 = load ptr, ptr %11, align 8
  call void @Vec_PtrPush(ptr noundef %90, ptr noundef %91)
  %92 = load ptr, ptr %11, align 8
  %93 = call ptr @Abc_ObjModel(ptr noundef %92)
  store ptr %93, ptr %10, align 8
  %94 = load ptr, ptr %10, align 8
  %95 = load ptr, ptr %8, align 8
  %96 = getelementptr inbounds %struct.Abc_Obj_t_, ptr %95, i32 0, i32 6
  %97 = load i32, ptr %96, align 8
  %98 = call ptr @Abc_NtkPo(ptr noundef %94, i32 noundef %97)
  store ptr %98, ptr %12, align 8
  %99 = load ptr, ptr %6, align 8
  %100 = load ptr, ptr %7, align 8
  %101 = load ptr, ptr %12, align 8
  %102 = load ptr, ptr %9, align 8
  %103 = call i32 @Abc_NtkFlattenHierarchyGia_rec(ptr noundef %99, ptr noundef %100, ptr noundef %101, ptr noundef %102)
  store i32 %103, ptr %13, align 4
  %104 = load ptr, ptr %7, align 8
  %105 = call ptr @Vec_PtrPop(ptr noundef %104)
  %106 = load ptr, ptr %9, align 8
  %107 = icmp ne ptr %106, null
  br i1 %107, label %108, label %111

108:                                              ; preds = %87
  %109 = load ptr, ptr %9, align 8
  %110 = load ptr, ptr %12, align 8
  call void @Vec_PtrPush(ptr noundef %109, ptr noundef %110)
  br label %111

111:                                              ; preds = %108, %87
  %112 = load ptr, ptr %9, align 8
  %113 = icmp ne ptr %112, null
  br i1 %113, label %114, label %118

114:                                              ; preds = %111
  %115 = load ptr, ptr %6, align 8
  %116 = load i32, ptr %13, align 4
  %117 = call i32 @Gia_ManAppendBuf(ptr noundef %115, i32 noundef %116)
  br label %120

118:                                              ; preds = %111
  %119 = load i32, ptr %13, align 4
  br label %120

120:                                              ; preds = %118, %114
  %121 = phi i32 [ %117, %114 ], [ %119, %118 ]
  %122 = load ptr, ptr %8, align 8
  %123 = getelementptr inbounds %struct.Abc_Obj_t_, ptr %122, i32 0, i32 7
  store i32 %121, ptr %123, align 8
  store i32 %121, ptr %5, align 4
  br label %151

124:                                              ; preds = %83
  store i32 0, ptr %14, align 4
  br label %125

125:                                              ; preds = %142, %124
  %126 = load i32, ptr %14, align 4
  %127 = load ptr, ptr %8, align 8
  %128 = call i32 @Abc_ObjFaninNum(ptr noundef %127)
  %129 = icmp slt i32 %126, %128
  br i1 %129, label %130, label %134

130:                                              ; preds = %125
  %131 = load ptr, ptr %8, align 8
  %132 = load i32, ptr %14, align 4
  %133 = call ptr @Abc_ObjFanin(ptr noundef %131, i32 noundef %132)
  store ptr %133, ptr %12, align 8
  br label %134

134:                                              ; preds = %130, %125
  %135 = phi i1 [ false, %125 ], [ true, %130 ]
  br i1 %135, label %136, label %145

136:                                              ; preds = %134
  %137 = load ptr, ptr %6, align 8
  %138 = load ptr, ptr %7, align 8
  %139 = load ptr, ptr %12, align 8
  %140 = load ptr, ptr %9, align 8
  %141 = call i32 @Abc_NtkFlattenHierarchyGia_rec(ptr noundef %137, ptr noundef %138, ptr noundef %139, ptr noundef %140)
  br label %142

142:                                              ; preds = %136
  %143 = load i32, ptr %14, align 4
  %144 = add nsw i32 %143, 1
  store i32 %144, ptr %14, align 4
  br label %125, !llvm.loop !27

145:                                              ; preds = %134
  %146 = load ptr, ptr %6, align 8
  %147 = load ptr, ptr %8, align 8
  %148 = call i32 @Abc_NodeStrashToGia(ptr noundef %146, ptr noundef %147)
  %149 = load ptr, ptr %8, align 8
  %150 = getelementptr inbounds %struct.Abc_Obj_t_, ptr %149, i32 0, i32 7
  store i32 %148, ptr %150, align 8
  store i32 %148, ptr %5, align 4
  br label %151

151:                                              ; preds = %145, %120, %79, %35, %19
  %152 = load i32, ptr %5, align 4
  ret i32 %152
}