; Function Attrs: nounwind uwtable
define i32 @Abc_NtkFlattenHierarchyGia_rec(ptr noundef %0, ptr noundef %1, ptr noundef %2, ptr noundef %3) local_unnamed_addr #0 {
  %5 = getelementptr inbounds nuw i8, ptr %2, i64 64
  %6 = load i32, ptr %5, align 8
  %.not = icmp eq i32 %6, -1
  br i1 %.not, label %7, label %common.ret

7:                                                ; preds = %4
  %8 = getelementptr i8, ptr %2, i64 20
  %.val84 = load i32, ptr %8, align 4
  %9 = and i32 %.val84, 15
  switch i32 %9, label %.preheader [
    i32 6, label %13
    i32 3, label %13
    i32 4, label %13
    i32 2, label %21
    i32 5, label %44
  ]

.preheader:                                       ; preds = %7
  %10 = getelementptr i8, ptr %2, i64 28
  %.val96 = load i32, ptr %10, align 4
  %11 = icmp sgt i32 %.val96, 0
  br i1 %11, label %.lr.ph, label %.critedge

.lr.ph:                                           ; preds = %.preheader
  %12 = getelementptr i8, ptr %2, i64 32
  br label %65

common.ret.sink.split:                            ; preds = %63, %44, %42, %21, %13, %.critedge
  %.sink = phi i32 [ %76, %.critedge ], [ %20, %13 ], [ %43, %42 ], [ %41, %21 ], [ %64, %63 ], [ %59, %44 ]
  store i32 %.sink, ptr %5, align 8
  br label %common.ret

common.ret:                                       ; preds = %common.ret.sink.split, %4
  %common.ret.op = phi i32 [ %6, %4 ], [ %.sink, %common.ret.sink.split ]
  ret i32 %common.ret.op

13:                                               ; preds = %7, %7, %7
  %.val81 = load ptr, ptr %2, align 8
  %14 = getelementptr i8, ptr %2, i64 32
  %.val82 = load ptr, ptr %14, align 8
  %15 = getelementptr i8, ptr %.val81, i64 32
  %.val81.val = load ptr, ptr %15, align 8
  %.val82.val = load i32, ptr %.val82, align 4
  %16 = getelementptr i8, ptr %.val81.val, i64 8
  %.val81.val.val = load ptr, ptr %16, align 8
  %17 = sext i32 %.val82.val to i64
  %18 = getelementptr inbounds ptr, ptr %.val81.val.val, i64 %17
  %19 = load ptr, ptr %18, align 8
  %20 = tail call i32 @Abc_NtkFlattenHierarchyGia_rec(ptr noundef %0, ptr noundef %1, ptr noundef %19, ptr noundef %3)
  br label %common.ret.sink.split

21:                                               ; preds = %7
  %22 = getelementptr inbounds nuw i8, ptr %1, i64 8
  %23 = load ptr, ptr %22, align 8
  %24 = getelementptr inbounds nuw i8, ptr %1, i64 4
  %25 = load i32, ptr %24, align 4
  %26 = add nsw i32 %25, -1
  store i32 %26, ptr %24, align 4
  %27 = sext i32 %26 to i64
  %28 = getelementptr inbounds ptr, ptr %23, i64 %27
  %29 = load ptr, ptr %28, align 8
  %30 = getelementptr inbounds nuw i8, ptr %2, i64 56
  %31 = load i32, ptr %30, align 8
  %.val77 = load ptr, ptr %29, align 8
  %32 = getelementptr i8, ptr %29, i64 32
  %.val78 = load ptr, ptr %32, align 8
  %33 = getelementptr i8, ptr %.val77, i64 32
  %.val77.val = load ptr, ptr %33, align 8
  %34 = getelementptr i8, ptr %.val77.val, i64 8
  %.val77.val.val = load ptr, ptr %34, align 8
  %35 = sext i32 %31 to i64
  %36 = getelementptr inbounds i32, ptr %.val78, i64 %35
  %37 = load i32, ptr %36, align 4
  %38 = sext i32 %37 to i64
  %39 = getelementptr inbounds ptr, ptr %.val77.val.val, i64 %38
  %40 = load ptr, ptr %39, align 8
  %41 = tail call i32 @Abc_NtkFlattenHierarchyGia_rec(ptr noundef %0, ptr noundef %1, ptr noundef %40, ptr noundef %3)
  tail call fastcc void @Vec_PtrPush(ptr noundef %1, ptr noundef nonnull %29)
  %.not70 = icmp eq ptr %3, null
  br i1 %.not70, label %common.ret.sink.split, label %42

42:                                               ; preds = %21
  tail call fastcc void @Vec_PtrPush(ptr noundef nonnull %3, ptr noundef nonnull %2)
  %43 = tail call fastcc i32 @Gia_ManAppendBuf(ptr noundef %0, i32 noundef %41)
  br label %common.ret.sink.split

44:                                               ; preds = %7
  %.val79 = load ptr, ptr %2, align 8
  %45 = getelementptr i8, ptr %2, i64 32
  %.val80 = load ptr, ptr %45, align 8
  %46 = getelementptr i8, ptr %.val79, i64 32
  %.val79.val = load ptr, ptr %46, align 8
  %.val80.val = load i32, ptr %.val80, align 4
  %47 = getelementptr i8, ptr %.val79.val, i64 8
  %.val79.val.val = load ptr, ptr %47, align 8
  %48 = sext i32 %.val80.val to i64
  %49 = getelementptr inbounds ptr, ptr %.val79.val.val, i64 %48
  %50 = load ptr, ptr %49, align 8
  tail call fastcc void @Vec_PtrPush(ptr noundef %1, ptr noundef %50)
  %51 = getelementptr i8, ptr %50, i64 56
  %.val89 = load ptr, ptr %51, align 8
  %52 = getelementptr inbounds nuw i8, ptr %2, i64 56
  %53 = load i32, ptr %52, align 8
  %54 = getelementptr i8, ptr %.val89, i64 48
  %.val83 = load ptr, ptr %54, align 8
  %55 = getelementptr i8, ptr %.val83, i64 8
  %.val83.val = load ptr, ptr %55, align 8
  %56 = sext i32 %53 to i64
  %57 = getelementptr inbounds ptr, ptr %.val83.val, i64 %56
  %58 = load ptr, ptr %57, align 8
  %59 = tail call i32 @Abc_NtkFlattenHierarchyGia_rec(ptr noundef %0, ptr noundef %1, ptr noundef %58, ptr noundef %3)
  %60 = getelementptr inbounds nuw i8, ptr %1, i64 4
  %61 = load i32, ptr %60, align 4
  %62 = add nsw i32 %61, -1
  store i32 %62, ptr %60, align 4
  %.not69 = icmp eq ptr %3, null
  br i1 %.not69, label %common.ret.sink.split, label %63

63:                                               ; preds = %44
  tail call fastcc void @Vec_PtrPush(ptr noundef nonnull %3, ptr noundef %58)
  %64 = tail call fastcc i32 @Gia_ManAppendBuf(ptr noundef %0, i32 noundef %59)
  br label %common.ret.sink.split

65:                                               ; preds = %.lr.ph, %65
  %indvars.iv = phi i64 [ 0, %.lr.ph ], [ %indvars.iv.next, %65 ]
  %.val75 = load ptr, ptr %2, align 8
  %.val76 = load ptr, ptr %12, align 8
  %66 = getelementptr i8, ptr %.val75, i64 32
  %.val75.val = load ptr, ptr %66, align 8
  %67 = getelementptr i8, ptr %.val75.val, i64 8
  %.val75.val.val = load ptr, ptr %67, align 8
  %68 = getelementptr inbounds nuw i32, ptr %.val76, i64 %indvars.iv
  %69 = load i32, ptr %68, align 4
  %70 = sext i32 %69 to i64
  %71 = getelementptr inbounds ptr, ptr %.val75.val.val, i64 %70
  %72 = load ptr, ptr %71, align 8
  %73 = tail call i32 @Abc_NtkFlattenHierarchyGia_rec(ptr noundef %0, ptr noundef %1, ptr noundef %72, ptr noundef %3)
  %indvars.iv.next = add nuw nsw i64 %indvars.iv, 1
  %.val = load i32, ptr %10, align 4
  %74 = sext i32 %.val to i64
  %75 = icmp slt i64 %indvars.iv.next, %74
  br i1 %75, label %65, label %.critedge, !llvm.loop !26

.critedge:                                        ; preds = %65, %.preheader
  %76 = tail call i32 @Abc_NodeStrashToGia(ptr noundef %0, ptr noundef nonnull %2)
  br label %common.ret.sink.split
}